; Function Attrs: mustprogress uwtable
define noundef signext range(i8 0, 2) i8 @_ZNK6icu_7710EmojiProps21hasBinaryPropertyImplEi9UProperty(ptr noundef nonnull readonly align 8 captures(none) dereferenceable(64) %0, i32 noundef %1, i32 noundef %2) local_unnamed_addr #4 align 2 {
  %4 = add i32 %2, -72
  %or.cond = icmp ult i32 %4, -15
  br i1 %or.cond, label %52, label %5

5:                                                ; preds = %3
  %6 = add nsw i32 %2, -57
  %7 = zext nneg i32 %6 to i64
  %8 = getelementptr inbounds nuw [15 x i8], ptr @_ZZNK6icu_7710EmojiProps21hasBinaryPropertyImplEi9UPropertyE8bitFlags, i64 0, i64 %7
  %9 = load i8, ptr %8, align 1, !tbaa !33
  %10 = shl nuw nsw i64 1, %7
  %11 = and i64 %10, 15968
  %.not = icmp eq i64 %11, 0
  br i1 %.not, label %12, label %52

12:                                               ; preds = %5
  %13 = getelementptr inbounds nuw i8, ptr %0, i64 8
  %14 = load ptr, ptr %13, align 8, !tbaa !10
  %15 = getelementptr inbounds nuw i8, ptr %14, i64 8
  %16 = load ptr, ptr %15, align 8, !tbaa !33
  %17 = icmp ult i32 %1, 65536
  br i1 %17, label %18, label %27

18:                                               ; preds = %12
  %19 = load ptr, ptr %14, align 8, !tbaa !34
  %20 = lshr i32 %1, 6
  %21 = zext nneg i32 %20 to i64
  %22 = getelementptr inbounds nuw i16, ptr %19, i64 %21
  %23 = load i16, ptr %22, align 2, !tbaa !37
  %24 = zext i16 %23 to i32
  %25 = and i32 %1, 63
  %26 = add nuw nsw i32 %25, %24
  br label %42

27:                                               ; preds = %12
  %28 = icmp ult i32 %1, 1114112
  br i1 %28, label %29, label %38

29:                                               ; preds = %27
  %30 = getelementptr inbounds nuw i8, ptr %14, i64 24
  %31 = load i32, ptr %30, align 8, !tbaa !38
  %.not18 = icmp slt i32 %1, %31
  br i1 %.not18, label %36, label %32

32:                                               ; preds = %29
  %33 = getelementptr inbounds nuw i8, ptr %14, i64 20
  %34 = load i32, ptr %33, align 4, !tbaa !39
  %35 = add nsw i32 %34, -2
  br label %42

36:                                               ; preds = %29
  %37 = tail call i32 @ucptrie_internalSmallIndex_77(ptr noundef nonnull %14, i32 noundef %1)
  br label %42

38:                                               ; preds = %27
  %39 = getelementptr inbounds nuw i8, ptr %14, i64 20
  %40 = load i32, ptr %39, align 4, !tbaa !39
  %41 = add nsw i32 %40, -1
  br label %42

42:                                               ; preds = %38, %36, %32, %18
  %43 = phi i32 [ %26, %18 ], [ %41, %38 ], [ %35, %32 ], [ %37, %36 ]
  %44 = sext i32 %43 to i64
  %45 = getelementptr inbounds i8, ptr %16, i64 %44
  %46 = load i8, ptr %45, align 1, !tbaa !33
  %47 = zext i8 %46 to i32
  %48 = zext nneg i8 %9 to i32
  %49 = lshr i32 %47, %48
  %50 = trunc nuw i32 %49 to i8
  %51 = and i8 %50, 1
  br label %52

52:                                               ; preds = %42, %5, %3
  %.0 = phi i8 [ 0, %3 ], [ %51, %42 ], [ 0, %5 ]
  ret i8 %.0
}